; Function Attrs: mustprogress uwtable
define void @_ZN5boost3log11v2_mt_posix4core23remove_thread_attributeENS1_13attribute_set4iterILb0EEE(ptr nocapture noundef nonnull readonly align 8 dereferenceable(8) %0, ptr %1) local_unnamed_addr #4 align 2 {
  %3 = load ptr, ptr %0, align 8, !tbaa !33
  %4 = getelementptr inbounds nuw i8, ptr %3, i64 104
  %5 = tail call noundef ptr @_ZN5boost6detail12get_tss_dataEPKv(ptr noundef nonnull align 8 dereferenceable(8) %4)
  %.not.i = icmp eq ptr %5, null
  br i1 %.not.i, label %6, label %_ZN5boost3log11v2_mt_posix4core14implementation15get_thread_dataEv.exit, !prof !76

6:                                                ; preds = %2
  tail call void @_ZN5boost3log11v2_mt_posix4core14implementation16init_thread_dataEv(ptr noundef nonnull align 8 dereferenceable(136) %3)
  %7 = tail call noundef ptr @_ZN5boost6detail12get_tss_dataEPKv(ptr noundef nonnull align 8 dereferenceable(8) %4)
  br label %_ZN5boost3log11v2_mt_posix4core14implementation15get_thread_dataEv.exit

_ZN5boost3log11v2_mt_posix4core14implementation15get_thread_dataEv.exit: ; preds = %2, %6
  %.0.i = phi ptr [ %7, %6 ], [ %5, %2 ]
  tail call void @_ZN5boost3log11v2_mt_posix13attribute_set5eraseENS2_4iterILb0EEE(ptr noundef nonnull align 8 dereferenceable(8) %.0.i, ptr %1) #21
  ret void
}